target datalayout = "e-m:e-p270:32:32-p271:32:32-p272:64:64-i64:64-i128:128-f80:128-n8:16:32:64-S128"
target triple = "x86_64-pc-linux-gnu"

%class.QToolBar = type { %class.QWidget }
%class.QWidget = type { %class.QObject, %class.QPaintDevice, ptr }
%class.QObject = type { ptr, %class.QScopedPointer }
%class.QScopedPointer = type { ptr }
%class.QPaintDevice = type { ptr, i16, ptr }
%class.QFrame = type { %class.QWidget }
%class.MLRenderingParametersFrame.base = type <{ %class.QFrame, i32 }>
%class.MLRenderingOnOffToolbar = type { %class.QToolBar, i32, ptr, ptr, ptr }
%class.MLRenderingDefaultDecoratorParametersFrame = type { %class.MLRenderingParametersFrame.base, ptr, ptr, ptr, ptr, ptr }

; Function Attrs: mustprogress uwtable
define void @_ZN23MLRenderingOnOffToolbar19setAssociatedMeshIdEi(ptr noundef nonnull align 8 dereferenceable(80) %0, i32 noundef %1) #5 align 2 {
  %3 = alloca ptr, align 8
  %4 = alloca i32, align 4
  store ptr %0, ptr %3, align 8
  store i32 %1, ptr %4, align 4
  %5 = load ptr, ptr %3, align 8
  %6 = load i32, ptr %4, align 4
  %7 = getelementptr inbounds %class.MLRenderingOnOffToolbar, ptr %5, i32 0, i32 1
  store i32 %6, ptr %7, align 8
  %8 = getelementptr inbounds %class.MLRenderingOnOffToolbar, ptr %5, i32 0, i32 2
  %9 = load ptr, ptr %8, align 8
  %10 = icmp ne ptr %9, null
  br i1 %10, label %11, label %15

11:                                               ; preds = %2
  %12 = getelementptr inbounds %class.MLRenderingOnOffToolbar, ptr %5, i32 0, i32 2
  %13 = load ptr, ptr %12, align 8
  %14 = load i32, ptr %4, align 4
  call void @_ZN17MLRenderingAction9setMeshIdEi(ptr noundef nonnull align 8 dereferenceable(16) %13, i32 noundef %14)
  br label %15

15:                                               ; preds = %11, %2
  ret void
}

; Function Attrs: mustprogress uwtable
define void @_ZN42MLRenderingDefaultDecoratorParametersFrame19setAssociatedMeshIdEi(ptr noundef nonnull align 8 dereferenceable(96) %0, i32 noundef %1) unnamed_addr #5 align 2 {
  %3 = alloca ptr, align 8
  %4 = alloca i32, align 4
  store ptr %0, ptr %3, align 8
  store i32 %1, ptr %4, align 4
  %5 = load ptr, ptr %3, align 8
  %6 = getelementptr inbounds %class.MLRenderingDefaultDecoratorParametersFrame, ptr %5, i32 0, i32 1
  %7 = load ptr, ptr %6, align 8
  %8 = load i32, ptr %4, align 4
  call void @_ZN23MLRenderingOnOffToolbar19setAssociatedMeshIdEi(ptr noundef nonnull align 8 dereferenceable(80) %7, i32 noundef %8)
  %9 = getelementptr inbounds %class.MLRenderingDefaultDecoratorParametersFrame, ptr %5, i32 0, i32 2
  %10 = load ptr, ptr %9, align 8
  %11 = load i32, ptr %4, align 4
  call void @_ZN23MLRenderingOnOffToolbar19setAssociatedMeshIdEi(ptr noundef nonnull align 8 dereferenceable(80) %10, i32 noundef %11)
  %12 = getelementptr inbounds %class.MLRenderingDefaultDecoratorParametersFrame, ptr %5, i32 0, i32 4
  %13 = load ptr, ptr %12, align 8
  %14 = load i32, ptr %4, align 4
  call void @_ZN23MLRenderingOnOffToolbar19setAssociatedMeshIdEi(ptr noundef nonnull align 8 dereferenceable(80) %13, i32 noundef %14)
  %15 = getelementptr inbounds %class.MLRenderingDefaultDecoratorParametersFrame, ptr %5, i32 0, i32 3
  %16 = load ptr, ptr %15, align 8
  %17 = load i32, ptr %4, align 4
  call void @_ZN23MLRenderingOnOffToolbar19setAssociatedMeshIdEi(ptr noundef nonnull align 8 dereferenceable(80) %16, i32 noundef %17)
  %18 = getelementptr inbounds %class.MLRenderingDefaultDecoratorParametersFrame, ptr %5, i32 0, i32 5
  %19 = load ptr, ptr %18, align 8
  %20 = load i32, ptr %4, align 4
  call void @_ZN23MLRenderingOnOffToolbar19setAssociatedMeshIdEi(ptr noundef nonnull align 8 dereferenceable(80) %19, i32 noundef %20)
  ret void
}