; Function Attrs: mustprogress uwtable
define void @_ZN42MLRenderingDefaultDecoratorParametersFrame19setAssociatedMeshIdEi(ptr nocapture noundef nonnull readonly align 8 dereferenceable(96) %0, i32 noundef %1) unnamed_addr #3 align 2 {
  %3 = getelementptr inbounds i8, ptr %0, i64 56
  %4 = load ptr, ptr %3, align 8
  %5 = getelementptr inbounds i8, ptr %4, i64 48
  store i32 %1, ptr %5, align 8
  %6 = getelementptr inbounds i8, ptr %4, i64 56
  %7 = load ptr, ptr %6, align 8
  %.not.i = icmp eq ptr %7, null
  br i1 %.not.i, label %_ZN23MLRenderingOnOffToolbar19setAssociatedMeshIdEi.exit, label %8

8:                                                ; preds = %2
  tail call void @_ZN17MLRenderingAction9setMeshIdEi(ptr noundef nonnull align 8 dereferenceable(16) %7, i32 noundef %1)
  br label %_ZN23MLRenderingOnOffToolbar19setAssociatedMeshIdEi.exit

_ZN23MLRenderingOnOffToolbar19setAssociatedMeshIdEi.exit: ; preds = %2, %8
  %9 = getelementptr inbounds i8, ptr %0, i64 64
  %10 = load ptr, ptr %9, align 8
  %11 = getelementptr inbounds i8, ptr %10, i64 48
  store i32 %1, ptr %11, align 8
  %12 = getelementptr inbounds i8, ptr %10, i64 56
  %13 = load ptr, ptr %12, align 8
  %.not.i5 = icmp eq ptr %13, null
  br i1 %.not.i5, label %_ZN23MLRenderingOnOffToolbar19setAssociatedMeshIdEi.exit6, label %14

14:                                               ; preds = %_ZN23MLRenderingOnOffToolbar19setAssociatedMeshIdEi.exit
  tail call void @_ZN17MLRenderingAction9setMeshIdEi(ptr noundef nonnull align 8 dereferenceable(16) %13, i32 noundef %1)
  br label %_ZN23MLRenderingOnOffToolbar19setAssociatedMeshIdEi.exit6

_ZN23MLRenderingOnOffToolbar19setAssociatedMeshIdEi.exit6: ; preds = %_ZN23MLRenderingOnOffToolbar19setAssociatedMeshIdEi.exit, %14
  %15 = getelementptr inbounds i8, ptr %0, i64 80
  %16 = load ptr, ptr %15, align 8
  %17 = getelementptr inbounds i8, ptr %16, i64 48
  store i32 %1, ptr %17, align 8
  %18 = getelementptr inbounds i8, ptr %16, i64 56
  %19 = load ptr, ptr %18, align 8
  %.not.i7 = icmp eq ptr %19, null
  br i1 %.not.i7, label %_ZN23MLRenderingOnOffToolbar19setAssociatedMeshIdEi.exit8, label %20

20:                                               ; preds = %_ZN23MLRenderingOnOffToolbar19setAssociatedMeshIdEi.exit6
  tail call void @_ZN17MLRenderingAction9setMeshIdEi(ptr noundef nonnull align 8 dereferenceable(16) %19, i32 noundef %1)
  br label %_ZN23MLRenderingOnOffToolbar19setAssociatedMeshIdEi.exit8

_ZN23MLRenderingOnOffToolbar19setAssociatedMeshIdEi.exit8: ; preds = %_ZN23MLRenderingOnOffToolbar19setAssociatedMeshIdEi.exit6, %20
  %21 = getelementptr inbounds i8, ptr %0, i64 72
  %22 = load ptr, ptr %21, align 8
  %23 = getelementptr inbounds i8, ptr %22, i64 48
  store i32 %1, ptr %23, align 8
  %24 = getelementptr inbounds i8, ptr %22, i64 56
  %25 = load ptr, ptr %24, align 8
  %.not.i9 = icmp eq ptr %25, null
  br i1 %.not.i9, label %_ZN23MLRenderingOnOffToolbar19setAssociatedMeshIdEi.exit10, label %26

26:                                               ; preds = %_ZN23MLRenderingOnOffToolbar19setAssociatedMeshIdEi.exit8
  tail call void @_ZN17MLRenderingAction9setMeshIdEi(ptr noundef nonnull align 8 dereferenceable(16) %25, i32 noundef %1)
  br label %_ZN23MLRenderingOnOffToolbar19setAssociatedMeshIdEi.exit10

_ZN23MLRenderingOnOffToolbar19setAssociatedMeshIdEi.exit10: ; preds = %_ZN23MLRenderingOnOffToolbar19setAssociatedMeshIdEi.exit8, %26
  %27 = getelementptr inbounds i8, ptr %0, i64 88
  %28 = load ptr, ptr %27, align 8
  %29 = getelementptr inbounds i8, ptr %28, i64 48
  store i32 %1, ptr %29, align 8
  %30 = getelementptr inbounds i8, ptr %28, i64 56
  %31 = load ptr, ptr %30, align 8
  %.not.i11 = icmp eq ptr %31, null
  br i1 %.not.i11, label %_ZN23MLRenderingOnOffToolbar19setAssociatedMeshIdEi.exit12, label %32

32:                                               ; preds = %_ZN23MLRenderingOnOffToolbar19setAssociatedMeshIdEi.exit10
  tail call void @_ZN17MLRenderingAction9setMeshIdEi(ptr noundef nonnull align 8 dereferenceable(16) %31, i32 noundef %1)
  br label %_ZN23MLRenderingOnOffToolbar19setAssociatedMeshIdEi.exit12

_ZN23MLRenderingOnOffToolbar19setAssociatedMeshIdEi.exit12: ; preds = %_ZN23MLRenderingOnOffToolbar19setAssociatedMeshIdEi.exit10, %32
  ret void
}